target datalayout = "e-m:e-p270:32:32-p271:32:32-p272:64:64-i64:64-i128:128-f80:128-n8:16:32:64-S128"
target triple = "x86_64-pc-linux-gnu"

%"class.std::__cxx11::basic_string" = type { %"struct.std::__cxx11::basic_string<char>::_Alloc_hider", i64, %union.anon }
%"struct.std::__cxx11::basic_string<char>::_Alloc_hider" = type { ptr }
%union.anon = type { i64, [8 x i8] }
%"class.pxrInternal_v0_24__pxrReserved__::TfType" = type { ptr }
%"class.pxrInternal_v0_24__pxrReserved__::JsValue" = type { %"class.std::shared_ptr" }
%"class.std::shared_ptr" = type { %"class.std::__shared_ptr" }
%"class.std::__shared_ptr" = type { ptr, %"class.std::__shared_count" }
%"class.std::__shared_count" = type { ptr }

; Function Attrs: mustprogress uwtable
define void @_ZNK32pxrInternal_v0_24__pxrReserved__12PlugRegistry27GetStringFromPluginMetaDataENS_6TfTypeERKNSt7__cxx1112basic_stringIcSt11char_traitsIcESaIcEEE(ptr dead_on_unwind noalias writable sret(%"class.std::__cxx11::basic_string") align 8 %0, ptr noundef nonnull align 8 dereferenceable(104) %1, ptr %2, ptr noundef nonnull align 8 dereferenceable(32) %3) #0 align 2 personality ptr @__gxx_personality_v0 {
  %5 = alloca ptr, align 8
  %6 = alloca %"class.pxrInternal_v0_24__pxrReserved__::TfType", align 8
  %7 = alloca ptr, align 8
  %8 = alloca ptr, align 8
  %9 = alloca %"class.pxrInternal_v0_24__pxrReserved__::JsValue", align 8
  %10 = alloca %"class.pxrInternal_v0_24__pxrReserved__::TfType", align 8
  %11 = alloca ptr, align 8
  %12 = alloca i32, align 4
  store ptr %0, ptr %5, align 8
  %13 = getelementptr inbounds nuw %"class.pxrInternal_v0_24__pxrReserved__::TfType", ptr %6, i32 0, i32 0
  store ptr %2, ptr %13, align 8
  store ptr %1, ptr %7, align 8
  store ptr %3, ptr %8, align 8
  %14 = load ptr, ptr %7, align 8
  call void @llvm.memcpy.p0.p0.i64(ptr align 8 %10, ptr align 8 %6, i64 8, i1 false)
  %15 = load ptr, ptr %8, align 8
  %16 = getelementptr inbounds nuw %"class.pxrInternal_v0_24__pxrReserved__::TfType", ptr %10, i32 0, i32 0
  %17 = load ptr, ptr %16, align 8
  call void @_ZNK32pxrInternal_v0_24__pxrReserved__12PlugRegistry25GetDataFromPluginMetaDataENS_6TfTypeERKNSt7__cxx1112basic_stringIcSt11char_traitsIcESaIcEEE(ptr dead_on_unwind writable sret(%"class.pxrInternal_v0_24__pxrReserved__::JsValue") align 8 %9, ptr noundef nonnull align 8 dereferenceable(104) %14, ptr %17, ptr noundef nonnull align 8 dereferenceable(32) %15)
  %18 = invoke noundef zeroext i1 @_ZNK32pxrInternal_v0_24__pxrReserved__7JsValue8IsStringEv(ptr noundef nonnull align 8 dereferenceable(16) %9)
          to label %19 unwind label %26

19:                                               ; preds = %4
  br i1 %18, label %20, label %24

20:                                               ; preds = %19
  %21 = invoke noundef nonnull align 8 dereferenceable(32) ptr @_ZNK32pxrInternal_v0_24__pxrReserved__7JsValue9GetStringB5cxx11Ev(ptr noundef nonnull align 8 dereferenceable(16) %9)
          to label %22 unwind label %26

22:                                               ; preds = %20
  invoke void @_ZNSt7__cxx1112basic_stringIcSt11char_traitsIcESaIcEEC1ERKS4_(ptr noundef nonnull align 8 dereferenceable(32) %0, ptr noundef nonnull align 8 dereferenceable(32) %21)
          to label %23 unwind label %26

23:                                               ; preds = %22
  br label %25

24:                                               ; preds = %19
  call void @_ZNSt7__cxx1112basic_stringIcSt11char_traitsIcESaIcEEC1Ev(ptr noundef nonnull align 8 dereferenceable(32) %0) #6
  br label %25

25:                                               ; preds = %24, %23
  call void @_ZN32pxrInternal_v0_24__pxrReserved__7JsValueD2Ev(ptr noundef nonnull align 8 dereferenceable(16) %9) #6
  ret void

26:                                               ; preds = %22, %20, %4
  %27 = landingpad { ptr, i32 }
          cleanup
  %28 = extractvalue { ptr, i32 } %27, 0
  store ptr %28, ptr %11, align 8
  %29 = extractvalue { ptr, i32 } %27, 1
  store i32 %29, ptr %12, align 4
  call void @_ZN32pxrInternal_v0_24__pxrReserved__7JsValueD2Ev(ptr noundef nonnull align 8 dereferenceable(16) %9) #6
  br label %30

30:                                               ; preds = %26
  %31 = load ptr, ptr %11, align 8
  %32 = load i32, ptr %12, align 4
  %33 = insertvalue { ptr, i32 } poison, ptr %31, 0
  %34 = insertvalue { ptr, i32 } %33, i32 %32, 1
  resume { ptr, i32 } %34
}