; Function Attrs: mustprogress uwtable
define void @_ZNK32pxrInternal_v0_24__pxrReserved__12PlugRegistry27GetStringFromPluginMetaDataENS_6TfTypeERKNSt7__cxx1112basic_stringIcSt11char_traitsIcESaIcEEE(ptr dead_on_unwind noalias writable sret(%"class.std::__cxx11::basic_string") align 8 %0, ptr nocapture noundef nonnull readnone align 8 dereferenceable(104) %1, ptr %2, ptr noundef nonnull align 8 dereferenceable(32) %3) local_unnamed_addr #0 align 2 personality ptr @__gxx_personality_v0 {
  %5 = alloca %"class.pxrInternal_v0_24__pxrReserved__::JsValue", align 8
  call void @_ZNK32pxrInternal_v0_24__pxrReserved__12PlugRegistry25GetDataFromPluginMetaDataENS_6TfTypeERKNSt7__cxx1112basic_stringIcSt11char_traitsIcESaIcEEE(ptr dead_on_unwind nonnull writable sret(%"class.pxrInternal_v0_24__pxrReserved__::JsValue") align 8 %5, ptr nonnull align 8 poison, ptr %2, ptr noundef nonnull align 8 dereferenceable(32) %3)
  %6 = invoke noundef zeroext i1 @_ZNK32pxrInternal_v0_24__pxrReserved__7JsValue8IsStringEv(ptr noundef nonnull align 8 dereferenceable(16) %5)
          to label %7 unwind label %49

7:                                                ; preds = %4
  br i1 %6, label %8, label %11

8:                                                ; preds = %7
  %9 = invoke noundef nonnull align 8 dereferenceable(32) ptr @_ZNK32pxrInternal_v0_24__pxrReserved__7JsValue9GetStringB5cxx11Ev(ptr noundef nonnull align 8 dereferenceable(16) %5)
          to label %10 unwind label %49

10:                                               ; preds = %8
  invoke void @_ZNSt7__cxx1112basic_stringIcSt11char_traitsIcESaIcEEC1ERKS4_(ptr noundef nonnull align 8 dereferenceable(32) %0, ptr noundef nonnull align 8 dereferenceable(32) %9)
          to label %12 unwind label %49

11:                                               ; preds = %7
  call void @_ZNSt7__cxx1112basic_stringIcSt11char_traitsIcESaIcEEC1Ev(ptr noundef nonnull align 8 dereferenceable(32) %0) #15
  br label %12

12:                                               ; preds = %10, %11
  %13 = getelementptr inbounds nuw i8, ptr %5, i64 8
  %14 = load ptr, ptr %13, align 8
  %.not.i.i.i.i = icmp eq ptr %14, null
  br i1 %.not.i.i.i.i, label %_ZN32pxrInternal_v0_24__pxrReserved__7JsValueD2Ev.exit, label %15

15:                                               ; preds = %12
  %16 = getelementptr inbounds nuw i8, ptr %14, i64 8
  %17 = load atomic i64, ptr %16 acquire, align 8
  %18 = icmp eq i64 %17, 4294967297
  %19 = trunc i64 %17 to i32
  br i1 %18, label %20, label %25

20:                                               ; preds = %15
  store i32 0, ptr %16, align 8
  %21 = getelementptr inbounds nuw i8, ptr %14, i64 12
  store i32 0, ptr %21, align 4
  %22 = load ptr, ptr %14, align 8
  %23 = getelementptr inbounds i8, ptr %22, i64 16
  %24 = load ptr, ptr %23, align 8
  call void %24(ptr noundef nonnull align 8 dereferenceable(16) %14) #15
  br label %_ZNSt16_Sp_counted_baseILN9__gnu_cxx12_Lock_policyE2EE24_M_release_last_use_coldEv.exit.sink.split.i.i.i.i.i

25:                                               ; preds = %15
  %26 = load i8, ptr @__libc_single_threaded, align 1
  %.not.i.i.i.i.i = icmp eq i8 %26, 0
  br i1 %.not.i.i.i.i.i, label %29, label %27

27:                                               ; preds = %25
  %28 = add nsw i32 %19, -1
  store i32 %28, ptr %16, align 4
  br label %31

29:                                               ; preds = %25
  %30 = atomicrmw volatile add ptr %16, i32 -1 acq_rel, align 4
  br label %31

31:                                               ; preds = %29, %27
  %.0.i.i.i.i.i = phi i32 [ %19, %27 ], [ %30, %29 ]
  %32 = icmp eq i32 %.0.i.i.i.i.i, 1
  br i1 %32, label %33, label %_ZN32pxrInternal_v0_24__pxrReserved__7JsValueD2Ev.exit

33:                                               ; preds = %31
  %34 = load ptr, ptr %14, align 8
  %35 = getelementptr inbounds i8, ptr %34, i64 16
  %36 = load ptr, ptr %35, align 8
  call void %36(ptr noundef nonnull align 8 dereferenceable(16) %14) #15
  %37 = getelementptr inbounds nuw i8, ptr %14, i64 12
  %38 = load i8, ptr @__libc_single_threaded, align 1
  %.not.i.i.i.i.i.i.i = icmp eq i8 %38, 0
  br i1 %.not.i.i.i.i.i.i.i, label %42, label %39

39:                                               ; preds = %33
  %40 = load i32, ptr %37, align 4
  %41 = add nsw i32 %40, -1
  store i32 %41, ptr %37, align 4
  br label %44

42:                                               ; preds = %33
  %43 = atomicrmw volatile add ptr %37, i32 -1 acq_rel, align 4
  br label %44

44:                                               ; preds = %42, %39
  %.0.i.i.i.i.i.i.i = phi i32 [ %40, %39 ], [ %43, %42 ]
  %45 = icmp eq i32 %.0.i.i.i.i.i.i.i, 1
  br i1 %45, label %_ZNSt16_Sp_counted_baseILN9__gnu_cxx12_Lock_policyE2EE24_M_release_last_use_coldEv.exit.sink.split.i.i.i.i.i, label %_ZN32pxrInternal_v0_24__pxrReserved__7JsValueD2Ev.exit

_ZNSt16_Sp_counted_baseILN9__gnu_cxx12_Lock_policyE2EE24_M_release_last_use_coldEv.exit.sink.split.i.i.i.i.i: ; preds = %44, %20
  %46 = load ptr, ptr %14, align 8
  %47 = getelementptr inbounds i8, ptr %46, i64 24
  %48 = load ptr, ptr %47, align 8
  call void %48(ptr noundef nonnull align 8 dereferenceable(16) %14) #15
  br label %_ZN32pxrInternal_v0_24__pxrReserved__7JsValueD2Ev.exit

_ZN32pxrInternal_v0_24__pxrReserved__7JsValueD2Ev.exit: ; preds = %12, %31, %44, %_ZNSt16_Sp_counted_baseILN9__gnu_cxx12_Lock_policyE2EE24_M_release_last_use_coldEv.exit.sink.split.i.i.i.i.i
  ret void

49:                                               ; preds = %10, %8, %4
  %50 = landingpad { ptr, i32 }
          cleanup
  call void @_ZN32pxrInternal_v0_24__pxrReserved__7JsValueD2Ev(ptr noundef nonnull align 8 dereferenceable(16) %5) #15
  resume { ptr, i32 } %50
}